target datalayout = "e-m:e-p270:32:32-p271:32:32-p272:64:64-i64:64-i128:128-f80:128-n8:16:32:64-S128"
target triple = "x86_64-pc-linux-gnu"

%struct._object = type { %union.anon, ptr }
%union.anon = type { i64 }

@.str.3 = private unnamed_addr constant [1 x i8] zeroinitializer, align 1
@.str.5 = private unnamed_addr constant [43 x i8] c"../cpython/Modules/_testlimitedcapi/pyos.c\00", align 1
@.str.7 = private unnamed_addr constant [7 x i8] c"insert\00", align 1
@.str.8 = private unnamed_addr constant [4 x i8] c"ins\00", align 1
@.str.14 = private unnamed_addr constant [7 x i8] c"Insert\00", align 1
@.str.16 = private unnamed_addr constant [7 x i8] c"INSERT\00", align 1
@.str.19 = private unnamed_addr constant [7 x i8] c"invert\00", align 1
@.str.22 = private unnamed_addr constant [7 x i8] c"ins\00rt\00", align 1
@_Py_NoneStruct = external global %struct._object, align 8
@.str.27 = private unnamed_addr constant [28 x i8] c"PyOS_mystricmp(\22\22, \22\22) == 0\00", align 1
@__PRETTY_FUNCTION__.test_PyOS_mystricmp = private unnamed_addr constant [54 x i8] c"PyObject *test_PyOS_mystricmp(PyObject *, PyObject *)\00", align 1
@.str.28 = private unnamed_addr constant [40 x i8] c"PyOS_mystricmp(\22insert\22, \22insert\22) == 0\00", align 1
@.str.29 = private unnamed_addr constant [40 x i8] c"PyOS_mystricmp(\22Insert\22, \22insert\22) == 0\00", align 1
@.str.30 = private unnamed_addr constant [40 x i8] c"PyOS_mystricmp(\22INSERT\22, \22insert\22) == 0\00", align 1
@.str.31 = private unnamed_addr constant [39 x i8] c"PyOS_mystricmp(\22insert\22, \22ins\22) == 'e'\00", align 1
@.str.32 = private unnamed_addr constant [40 x i8] c"PyOS_mystricmp(\22ins\22, \22insert\22) == -'e'\00", align 1
@.str.33 = private unnamed_addr constant [43 x i8] c"PyOS_mystricmp(\22insert\22, \22ins\\0rt\22) == 'e'\00", align 1
@.str.34 = private unnamed_addr constant [50 x i8] c"PyOS_mystricmp(\22invert\22, \22insert\22) == ('v' - 's')\00", align 1

; Function Attrs: nounwind uwtable
define internal ptr @test_PyOS_mystricmp(ptr noundef %0, ptr noundef %1) #0 {
  %3 = alloca ptr, align 8
  %4 = alloca ptr, align 8
  store ptr %0, ptr %3, align 8, !tbaa !3
  store ptr %1, ptr %4, align 8, !tbaa !3
  %5 = call i32 @PyOS_mystricmp(ptr noundef @.str.3, ptr noundef @.str.3)
  %6 = icmp eq i32 %5, 0
  br i1 %6, label %7, label %8

7:                                                ; preds = %2
  br label %10

8:                                                ; preds = %2
  call void @__assert_fail(ptr noundef @.str.27, ptr noundef @.str.5, i32 noundef 32, ptr noundef @__PRETTY_FUNCTION__.test_PyOS_mystricmp) #3
  unreachable

9:                                                ; No predecessors!
  br label %10

10:                                               ; preds = %9, %7
  %11 = call i32 @PyOS_mystricmp(ptr noundef @.str.7, ptr noundef @.str.7)
  %12 = icmp eq i32 %11, 0
  br i1 %12, label %13, label %14

13:                                               ; preds = %10
  br label %16

14:                                               ; preds = %10
  call void @__assert_fail(ptr noundef @.str.28, ptr noundef @.str.5, i32 noundef 33, ptr noundef @__PRETTY_FUNCTION__.test_PyOS_mystricmp) #3
  unreachable

15:                                               ; No predecessors!
  br label %16

16:                                               ; preds = %15, %13
  %17 = call i32 @PyOS_mystricmp(ptr noundef @.str.14, ptr noundef @.str.7)
  %18 = icmp eq i32 %17, 0
  br i1 %18, label %19, label %20

19:                                               ; preds = %16
  br label %22

20:                                               ; preds = %16
  call void @__assert_fail(ptr noundef @.str.29, ptr noundef @.str.5, i32 noundef 34, ptr noundef @__PRETTY_FUNCTION__.test_PyOS_mystricmp) #3
  unreachable

21:                                               ; No predecessors!
  br label %22

22:                                               ; preds = %21, %19
  %23 = call i32 @PyOS_mystricmp(ptr noundef @.str.16, ptr noundef @.str.7)
  %24 = icmp eq i32 %23, 0
  br i1 %24, label %25, label %26

25:                                               ; preds = %22
  br label %28

26:                                               ; preds = %22
  call void @__assert_fail(ptr noundef @.str.30, ptr noundef @.str.5, i32 noundef 35, ptr noundef @__PRETTY_FUNCTION__.test_PyOS_mystricmp) #3
  unreachable

27:                                               ; No predecessors!
  br label %28

28:                                               ; preds = %27, %25
  %29 = call i32 @PyOS_mystricmp(ptr noundef @.str.7, ptr noundef @.str.8)
  %30 = icmp eq i32 %29, 101
  br i1 %30, label %31, label %32

31:                                               ; preds = %28
  br label %34

32:                                               ; preds = %28
  call void @__assert_fail(ptr noundef @.str.31, ptr noundef @.str.5, i32 noundef 36, ptr noundef @__PRETTY_FUNCTION__.test_PyOS_mystricmp) #3
  unreachable

33:                                               ; No predecessors!
  br label %34

34:                                               ; preds = %33, %31
  %35 = call i32 @PyOS_mystricmp(ptr noundef @.str.8, ptr noundef @.str.7)
  %36 = icmp eq i32 %35, -101
  br i1 %36, label %37, label %38

37:                                               ; preds = %34
  br label %40

38:                                               ; preds = %34
  call void @__assert_fail(ptr noundef @.str.32, ptr noundef @.str.5, i32 noundef 37, ptr noundef @__PRETTY_FUNCTION__.test_PyOS_mystricmp) #3
  unreachable

39:                                               ; No predecessors!
  br label %40

40:                                               ; preds = %39, %37
  %41 = call i32 @PyOS_mystricmp(ptr noundef @.str.7, ptr noundef @.str.22)
  %42 = icmp eq i32 %41, 101
  br i1 %42, label %43, label %44

43:                                               ; preds = %40
  br label %46

44:                                               ; preds = %40
  call void @__assert_fail(ptr noundef @.str.33, ptr noundef @.str.5, i32 noundef 40, ptr noundef @__PRETTY_FUNCTION__.test_PyOS_mystricmp) #3
  unreachable

45:                                               ; No predecessors!
  br label %46

46:                                               ; preds = %45, %43
  %47 = call i32 @PyOS_mystricmp(ptr noundef @.str.19, ptr noundef @.str.7)
  %48 = icmp eq i32 %47, 3
  br i1 %48, label %49, label %50

49:                                               ; preds = %46
  br label %52

50:                                               ; preds = %46
  call void @__assert_fail(ptr noundef @.str.34, ptr noundef @.str.5, i32 noundef 41, ptr noundef @__PRETTY_FUNCTION__.test_PyOS_mystricmp) #3
  unreachable

51:                                               ; No predecessors!
  br label %52

52:                                               ; preds = %51, %49
  ret ptr @_Py_NoneStruct
}