; Function Attrs: nounwind uwtable
define internal noundef nonnull ptr @test_PyOS_mystricmp(ptr readnone captures(none) %0, ptr readnone captures(none) %1) #0 {
  %3 = tail call i32 @PyOS_mystricmp(ptr noundef nonnull @.str.3, ptr noundef nonnull @.str.3) #3
  %4 = icmp eq i32 %3, 0
  br i1 %4, label %6, label %5

5:                                                ; preds = %2
  tail call void @__assert_fail(ptr noundef nonnull @.str.27, ptr noundef nonnull @.str.5, i32 noundef 32, ptr noundef nonnull @__PRETTY_FUNCTION__.test_PyOS_mystricmp) #4
  unreachable

6:                                                ; preds = %2
  %7 = tail call i32 @PyOS_mystricmp(ptr noundef nonnull @.str.7, ptr noundef nonnull @.str.7) #3
  %8 = icmp eq i32 %7, 0
  br i1 %8, label %10, label %9

9:                                                ; preds = %6
  tail call void @__assert_fail(ptr noundef nonnull @.str.28, ptr noundef nonnull @.str.5, i32 noundef 33, ptr noundef nonnull @__PRETTY_FUNCTION__.test_PyOS_mystricmp) #4
  unreachable

10:                                               ; preds = %6
  %11 = tail call i32 @PyOS_mystricmp(ptr noundef nonnull @.str.14, ptr noundef nonnull @.str.7) #3
  %12 = icmp eq i32 %11, 0
  br i1 %12, label %14, label %13

13:                                               ; preds = %10
  tail call void @__assert_fail(ptr noundef nonnull @.str.29, ptr noundef nonnull @.str.5, i32 noundef 34, ptr noundef nonnull @__PRETTY_FUNCTION__.test_PyOS_mystricmp) #4
  unreachable

14:                                               ; preds = %10
  %15 = tail call i32 @PyOS_mystricmp(ptr noundef nonnull @.str.16, ptr noundef nonnull @.str.7) #3
  %16 = icmp eq i32 %15, 0
  br i1 %16, label %18, label %17

17:                                               ; preds = %14
  tail call void @__assert_fail(ptr noundef nonnull @.str.30, ptr noundef nonnull @.str.5, i32 noundef 35, ptr noundef nonnull @__PRETTY_FUNCTION__.test_PyOS_mystricmp) #4
  unreachable

18:                                               ; preds = %14
  %19 = tail call i32 @PyOS_mystricmp(ptr noundef nonnull @.str.7, ptr noundef nonnull @.str.8) #3
  %20 = icmp eq i32 %19, 101
  br i1 %20, label %22, label %21

21:                                               ; preds = %18
  tail call void @__assert_fail(ptr noundef nonnull @.str.31, ptr noundef nonnull @.str.5, i32 noundef 36, ptr noundef nonnull @__PRETTY_FUNCTION__.test_PyOS_mystricmp) #4
  unreachable

22:                                               ; preds = %18
  %23 = tail call i32 @PyOS_mystricmp(ptr noundef nonnull @.str.8, ptr noundef nonnull @.str.7) #3
  %24 = icmp eq i32 %23, -101
  br i1 %24, label %26, label %25

25:                                               ; preds = %22
  tail call void @__assert_fail(ptr noundef nonnull @.str.32, ptr noundef nonnull @.str.5, i32 noundef 37, ptr noundef nonnull @__PRETTY_FUNCTION__.test_PyOS_mystricmp) #4
  unreachable

26:                                               ; preds = %22
  %27 = tail call i32 @PyOS_mystricmp(ptr noundef nonnull @.str.7, ptr noundef nonnull @.str.22) #3
  %28 = icmp eq i32 %27, 101
  br i1 %28, label %30, label %29

29:                                               ; preds = %26
  tail call void @__assert_fail(ptr noundef nonnull @.str.33, ptr noundef nonnull @.str.5, i32 noundef 40, ptr noundef nonnull @__PRETTY_FUNCTION__.test_PyOS_mystricmp) #4
  unreachable

30:                                               ; preds = %26
  %31 = tail call i32 @PyOS_mystricmp(ptr noundef nonnull @.str.19, ptr noundef nonnull @.str.7) #3
  %32 = icmp eq i32 %31, 3
  br i1 %32, label %34, label %33

33:                                               ; preds = %30
  tail call void @__assert_fail(ptr noundef nonnull @.str.34, ptr noundef nonnull @.str.5, i32 noundef 41, ptr noundef nonnull @__PRETTY_FUNCTION__.test_PyOS_mystricmp) #4
  unreachable

34:                                               ; preds = %30
  ret ptr @_Py_NoneStruct
}